target datalayout = "e-m:e-p270:32:32-p271:32:32-p272:64:64-i64:64-i128:128-f80:128-n8:16:32:64-S128"
target triple = "x86_64-pc-linux-gnu"

%"class.llvm::ArrayRef" = type { ptr, i64 }
%"class.llvm::StringRef" = type { ptr, i64 }
%"class.(anonymous namespace)::OSLogFormatStringHandler" = type { %"class.clang::analyze_format_string::FormatStringHandler", %"class.llvm::SmallVector", %"class.llvm::ArrayRef" }
%"class.clang::analyze_format_string::FormatStringHandler" = type { ptr }
%"class.llvm::SmallVector" = type { %"class.llvm::SmallVectorImpl", %"struct.llvm::SmallVectorStorage" }
%"class.llvm::SmallVectorImpl" = type { %"class.llvm::SmallVectorTemplateBase" }
%"class.llvm::SmallVectorTemplateBase" = type { %"class.llvm::SmallVectorTemplateCommon" }
%"class.llvm::SmallVectorTemplateCommon" = type { %"class.llvm::SmallVectorBase" }
%"class.llvm::SmallVectorBase" = type { ptr, i32, i32 }
%"struct.llvm::SmallVectorStorage" = type { [384 x i8] }
%"struct.(anonymous namespace)::OSLogFormatStringHandler::ArgData" = type { ptr, %"class.std::optional.367", %"class.std::optional.375", %"class.std::optional.383", %"class.std::optional.383", %"class.std::optional.383", i8, %"class.llvm::StringRef" }
%"class.std::optional.367" = type { %"struct.std::_Optional_base.368" }
%"struct.std::_Optional_base.368" = type { %"struct.std::_Optional_payload.370" }
%"struct.std::_Optional_payload.370" = type { %"struct.std::_Optional_payload_base.base.372", [3 x i8] }
%"struct.std::_Optional_payload_base.base.372" = type <{ %"union.std::_Optional_payload_base<clang::analyze_os_log::OSLogBufferItem::Kind>::_Storage", i8 }>
%"union.std::_Optional_payload_base<clang::analyze_os_log::OSLogBufferItem::Kind>::_Storage" = type { i32 }
%"class.std::optional.375" = type { %"struct.std::_Optional_base.376" }
%"struct.std::_Optional_base.376" = type { %"struct.std::_Optional_payload.378" }
%"struct.std::_Optional_payload.378" = type { %"struct.std::_Optional_payload_base.base.380", [3 x i8] }
%"struct.std::_Optional_payload_base.base.380" = type <{ %"union.std::_Optional_payload_base<unsigned int>::_Storage", i8 }>
%"union.std::_Optional_payload_base<unsigned int>::_Storage" = type { i32 }
%"class.std::optional.383" = type { %"struct.std::_Optional_base.384" }
%"struct.std::_Optional_base.384" = type { %"struct.std::_Optional_payload.386" }
%"struct.std::_Optional_payload.386" = type { %"struct.std::_Optional_payload_base.base.388", [7 x i8] }
%"struct.std::_Optional_payload_base.base.388" = type <{ %"union.std::_Optional_payload_base<const clang::Expr *>::_Storage", i8 }>
%"union.std::_Optional_payload_base<const clang::Expr *>::_Storage" = type { ptr }

; Function Attrs: mustprogress nounwind uwtable
define internal noundef ptr @_ZNK4llvm25SmallVectorTemplateCommonIN12_GLOBAL__N_124OSLogFormatStringHandler7ArgDataEvE10getFirstElEv(ptr noundef nonnull align 8 dereferenceable(16) %0) #0 align 2 {
  %2 = alloca ptr, align 8
  store ptr %0, ptr %2, align 8
  %3 = load ptr, ptr %2, align 8
  %4 = getelementptr inbounds i8, ptr %3, i64 16
  ret ptr %4
}

; Function Attrs: mustprogress nounwind uwtable
define internal noundef zeroext i1 @_ZNK4llvm25SmallVectorTemplateCommonIN12_GLOBAL__N_124OSLogFormatStringHandler7ArgDataEvE7isSmallEv(ptr noundef nonnull align 8 dereferenceable(16) %0) #0 align 2 {
  %2 = alloca ptr, align 8
  store ptr %0, ptr %2, align 8
  %3 = load ptr, ptr %2, align 8
  %4 = getelementptr inbounds nuw %"class.llvm::SmallVectorBase", ptr %3, i32 0, i32 0
  %5 = load ptr, ptr %4, align 8
  %6 = call noundef ptr @_ZNK4llvm25SmallVectorTemplateCommonIN12_GLOBAL__N_124OSLogFormatStringHandler7ArgDataEvE10getFirstElEv(ptr noundef nonnull align 8 dereferenceable(16) %3)
  %7 = icmp eq ptr %5, %6
  ret i1 %7
}

; Function Attrs: mustprogress nounwind uwtable
define internal void @_ZN4llvm15SmallVectorImplIN12_GLOBAL__N_124OSLogFormatStringHandler7ArgDataEED2Ev(ptr noundef nonnull align 8 dereferenceable(16) %0) unnamed_addr #0 align 2 {
  %2 = alloca ptr, align 8
  store ptr %0, ptr %2, align 8
  %3 = load ptr, ptr %2, align 8
  %4 = call noundef zeroext i1 @_ZNK4llvm25SmallVectorTemplateCommonIN12_GLOBAL__N_124OSLogFormatStringHandler7ArgDataEvE7isSmallEv(ptr noundef nonnull align 8 dereferenceable(16) %3)
  br i1 %4, label %7, label %5

5:                                                ; preds = %1
  %6 = call noundef ptr @_ZN4llvm25SmallVectorTemplateCommonIN12_GLOBAL__N_124OSLogFormatStringHandler7ArgDataEvE5beginEv(ptr noundef nonnull align 8 dereferenceable(16) %3)
  call void @free(ptr noundef %6) #7
  br label %7

7:                                                ; preds = %5, %1
  ret void
}

; Function Attrs: mustprogress nounwind uwtable
define internal void @_ZN4llvm23SmallVectorTemplateBaseIN12_GLOBAL__N_124OSLogFormatStringHandler7ArgDataELb1EE13destroy_rangeEPS3_S5_(ptr noundef %0, ptr noundef %1) #0 align 2 {
  %3 = alloca ptr, align 8
  %4 = alloca ptr, align 8
  store ptr %0, ptr %3, align 8
  store ptr %1, ptr %4, align 8
  ret void
}

; Function Attrs: mustprogress nounwind uwtable
define internal noundef ptr @_ZN4llvm25SmallVectorTemplateCommonIN12_GLOBAL__N_124OSLogFormatStringHandler7ArgDataEvE3endEv(ptr noundef nonnull align 8 dereferenceable(16) %0) #0 align 2 {
  %2 = alloca ptr, align 8
  store ptr %0, ptr %2, align 8
  %3 = load ptr, ptr %2, align 8
  %4 = call noundef ptr @_ZN4llvm25SmallVectorTemplateCommonIN12_GLOBAL__N_124OSLogFormatStringHandler7ArgDataEvE5beginEv(ptr noundef nonnull align 8 dereferenceable(16) %3)
  %5 = call noundef i64 @_ZNK4llvm15SmallVectorBaseIjE4sizeEv(ptr noundef nonnull align 8 dereferenceable(16) %3)
  %6 = getelementptr inbounds %"struct.(anonymous namespace)::OSLogFormatStringHandler::ArgData", ptr %4, i64 %5
  ret ptr %6
}

; Function Attrs: mustprogress nounwind uwtable
define internal noundef ptr @_ZN4llvm25SmallVectorTemplateCommonIN12_GLOBAL__N_124OSLogFormatStringHandler7ArgDataEvE5beginEv(ptr noundef nonnull align 8 dereferenceable(16) %0) #0 align 2 {
  %2 = alloca ptr, align 8
  store ptr %0, ptr %2, align 8
  %3 = load ptr, ptr %2, align 8
  %4 = getelementptr inbounds nuw %"class.llvm::SmallVectorBase", ptr %3, i32 0, i32 0
  %5 = load ptr, ptr %4, align 8
  ret ptr %5
}

; Function Attrs: mustprogress nounwind uwtable
define internal void @_ZN4llvm11SmallVectorIN12_GLOBAL__N_124OSLogFormatStringHandler7ArgDataELj4EED2Ev(ptr noundef nonnull align 8 dereferenceable(400) %0) unnamed_addr #0 align 2 {
  %2 = alloca ptr, align 8
  store ptr %0, ptr %2, align 8
  %3 = load ptr, ptr %2, align 8
  %4 = call noundef ptr @_ZN4llvm25SmallVectorTemplateCommonIN12_GLOBAL__N_124OSLogFormatStringHandler7ArgDataEvE5beginEv(ptr noundef nonnull align 8 dereferenceable(16) %3)
  %5 = call noundef ptr @_ZN4llvm25SmallVectorTemplateCommonIN12_GLOBAL__N_124OSLogFormatStringHandler7ArgDataEvE3endEv(ptr noundef nonnull align 8 dereferenceable(16) %3)
  call void @_ZN4llvm23SmallVectorTemplateBaseIN12_GLOBAL__N_124OSLogFormatStringHandler7ArgDataELb1EE13destroy_rangeEPS3_S5_(ptr noundef %4, ptr noundef %5)
  call void @_ZN4llvm15SmallVectorImplIN12_GLOBAL__N_124OSLogFormatStringHandler7ArgDataEED2Ev(ptr noundef nonnull align 8 dereferenceable(16) %3) #7
  ret void
}

; Function Attrs: mustprogress nounwind uwtable
define internal void @_ZN12_GLOBAL__N_124OSLogFormatStringHandlerD2Ev(ptr noundef nonnull align 8 dereferenceable(424) %0) unnamed_addr #0 align 2 {
  %2 = alloca ptr, align 8
  store ptr %0, ptr %2, align 8
  %3 = load ptr, ptr %2, align 8
  store ptr getelementptr inbounds inrange(-16, 128) ({ [18 x ptr] }, ptr @_ZTVN12_GLOBAL__N_124OSLogFormatStringHandlerE, i32 0, i32 0, i32 2), ptr %3, align 8
  %4 = getelementptr inbounds nuw %"class.(anonymous namespace)::OSLogFormatStringHandler", ptr %3, i32 0, i32 1
  call void @_ZN4llvm11SmallVectorIN12_GLOBAL__N_124OSLogFormatStringHandler7ArgDataELj4EED2Ev(ptr noundef nonnull align 8 dereferenceable(400) %4) #7
  call void @_ZN5clang21analyze_format_string19FormatStringHandlerD2Ev(ptr noundef nonnull align 8 dereferenceable(8) %3) #7
  ret void
}

; Function Attrs: mustprogress nounwind uwtable
define internal void @_ZN12_GLOBAL__N_124OSLogFormatStringHandlerD0Ev(ptr noundef nonnull align 8 dereferenceable(424) %0) unnamed_addr #0 align 2 {
  %2 = alloca ptr, align 8
  store ptr %0, ptr %2, align 8
  %3 = load ptr, ptr %2, align 8
  call void @_ZN12_GLOBAL__N_124OSLogFormatStringHandlerD2Ev(ptr noundef nonnull align 8 dereferenceable(424) %3) #7
  call void @_ZdlPvm(ptr noundef %3, i64 noundef 424) #9
  ret void
}